; Function Attrs: mustprogress nounwind uwtable
define noundef ptr @_ZNK7glslang16HlslParseContext20makeInternalVariableEPKcRKNS_5TTypeE(ptr nocapture noundef nonnull readonly align 8 dereferenceable(2489) %0, ptr noundef %1, ptr noundef nonnull align 8 dereferenceable(152) %2) local_unnamed_addr #0 align 2 {
  %4 = tail call noundef ptr @_ZN7glslang14NewPoolTStringB5cxx11EPKc(ptr noundef %1)
  %5 = tail call noundef nonnull align 8 dereferenceable(96) ptr @_ZN7glslang22GetThreadPoolAllocatorEv() #24
  %6 = tail call noundef ptr @_ZN7glslang14TPoolAllocator8allocateEm(ptr noundef nonnull align 8 dereferenceable(96) %5, i64 noundef 240) #24
  tail call void @_ZN7glslang9TVariableC2EPKNSt7__cxx1112basic_stringIcSt11char_traitsIcENS_14pool_allocatorIcEEEERKNS_5TTypeEb(ptr noundef nonnull align 8 dereferenceable(236) %6, ptr noundef %4, ptr noundef nonnull align 8 dereferenceable(152) %2, i1 noundef zeroext false)
  %7 = getelementptr inbounds i8, ptr %0, i64 232
  %8 = load ptr, ptr %7, align 8
  %9 = getelementptr inbounds i8, ptr %8, i64 24
  %10 = load i64, ptr %9, align 8
  %11 = add nsw i64 %10, 1
  store i64 %11, ptr %9, align 8
  %12 = load ptr, ptr %6, align 8
  %13 = getelementptr inbounds i8, ptr %12, i64 112
  %14 = load ptr, ptr %13, align 8
  tail call void %14(ptr noundef nonnull align 8 dereferenceable(33) %6, i64 noundef %11) #24
  ret ptr %6
}